(lp0
(dp1
S'reward'
p2
I-34
sS'next_state'
p3
(lp4
I17
aI0
asS'prev_state'
p5
(lp6
I0
aI0
asS'action_id'
p7
I0
sa(dp8
g2
I-10
sg3
(lp9
I16
aI22
asg5
(lp10
I17
aI0
asg7
I1
sa(dp11
g2
I4
sg3
(lp12
I19
aI20
asg5
(lp13
I16
aI22
asg7
I0
sa(dp14
g2
I-12
sg3
(lp15
I26
aI10
asg5
(lp16
I19
aI20
asg7
I1
sa(dp17
g2
I2
sg3
(lp18
I25
aI23
asg5
(lp19
I26
aI10
asg7
I0
sa(dp20
g2
I-12
sg3
(lp21
I31
aI12
asg5
(lp22
I25
aI23
asg7
I1
sa(dp23
g2
I-8
sg3
(lp24
I35
aI18
asg5
(lp25
I31
aI12
asg7
I2
sa(dp26
g2
I-12
sg3
(lp27
I41
aI14
asg5
(lp28
I35
aI18
asg7
I0
sa(dp29
g2
I28
sg3
(lp30
I27
aI26
asg5
(lp31
I41
aI14
asg7
I1
sa(dp32
g2
I2
sg3
(lp33
I20
aI26
asg5
(lp34
I27
aI26
asg7
I1
sa(dp35
g2
I0
sg3
(lp36
I22
aI26
asg5
(lp37
I20
aI26
asg7
I1
sa(dp38
g2
I12
sg3
(lp39
I12
aI20
asg5
(lp40
I22
aI26
asg7
I1
sa(dp41
g2
I-22
sg3
(lp42
I15
aI31
asg5
(lp43
I12
aI20
asg7
I1
sa(dp44
g2
I-16
sg3
(lp45
I19
aI39
asg5
(lp46
I15
aI31
asg7
I1
sa(dp47
g2
I-10
sg3
(lp48
I14
aI44
asg5
(lp49
I19
aI39
asg7
I1
sa(dp50
g2
I-18
sg3
(lp51
I12
aI53
asg5
(lp52
I14
aI44
asg7
I1
sa(dp53
g2
I-46
sg3
(lp54
I14
aI76
asg5
(lp55
I12
aI53
asg7
I0
sa(dp56
g2
I-30
sg3
(lp57
I15
aI91
asg5
(lp58
I14
aI76
asg7
I0
sa(dp59
g2
I-20
sg3
(lp60
I14
aI101
asg5
(lp61
I15
aI91
asg7
I0
sa(dp62
g2
I-46
sg3
(lp63
I9
aI124
asg5
(lp64
I14
aI101
asg7
I0
sa(dp65
g2
I-38
sg3
(lp66
I14
aI143
asg5
(lp67
I9
aI124
asg7
I0
sa(dp68
g2
I-34
sg3
(lp69
I9
aI160
asg5
(lp70
I14
aI143
asg7
I0
sa(dp71
g2
I-24
sg3
(lp72
I13
aI172
asg5
(lp73
I9
aI160
asg7
I0
sa(dp74
g2
I-6
sg3
(lp75
I11
aI175
asg5
(lp76
I13
aI172
asg7
I0
sa(dp77
g2
I-14
sg3
(lp78
I10
aI182
asg5
(lp79
I11
aI175
asg7
I0
sa(dp80
g2
I-16
sg3
(lp81
I13
aI190
asg5
(lp82
I10
aI182
asg7
I0
sa(dp83
g2
I0
sg3
(lp84
I15
aI190
asg5
(lp85
I13
aI190
asg7
I2
sa(dp86
g2
I6
sg3
(lp87
I15
aI187
asg5
(lp88
I15
aI190
asg7
I0
sa(dp89
g2
I0
sg3
(lp90
I18
aI187
asg5
(lp91
I15
aI187
asg7
I0
sa(dp92
g2
I-52
sg3
(lp93
I10
aI213
asg5
(lp94
I18
aI187
asg7
I0
sa(dp95
g2
I-16
sg3
(lp96
I11
aI221
asg5
(lp97
I10
aI213
asg7
I0
sa(dp98
g2
I50
sg3
(lp99
I16
aI196
asg5
(lp100
I11
aI221
asg7
I1
sa(dp101
g2
I-24
sg3
(lp102
I13
aI208
asg5
(lp103
I16
aI196
asg7
I2
sa(dp104
g2
I-38
sg3
(lp105
I19
aI227
asg5
(lp106
I13
aI208
asg7
I2
sa(dp107
g2
I70
sg3
(lp108
I16
aI192
asg5
(lp109
I19
aI227
asg7
I2
sa(dp110
g2
I-48
sg3
(lp111
I18
aI216
asg5
(lp112
I16
aI192
asg7
I2
sa(dp113
g2
I84
sg3
(lp114
I20
aI174
asg5
(lp115
I18
aI216
asg7
I2
sa(dp116
g2
I-32
sg3
(lp117
I19
aI190
asg5
(lp118
I20
aI174
asg7
I2
sa(dp119
g2
I54
sg3
(lp120
I19
aI163
asg5
(lp121
I19
aI190
asg7
I2
sa(dp122
g2
I-10
sg3
(lp123
I22
aI168
asg5
(lp124
I19
aI163
asg7
I2
sa(dp125
g2
I-16
sg3
(lp126
I30
aI176
asg5
(lp127
I22
aI168
asg7
I2
sa(dp128
g2
I98
sg3
(lp129
I21
aI127
asg5
(lp130
I30
aI176
asg7
I2
sa(dp131
g2
I-30
sg3
(lp132
I29
aI142
asg5
(lp133
I21
aI127
asg7
I2
sa(dp134
g2
I56
sg3
(lp135
I32
aI114
asg5
(lp136
I29
aI142
asg7
I2
sa(dp137
g2
I14
sg3
(lp138
I39
aI107
asg5
(lp139
I32
aI114
asg7
I2
sa(dp140
g2
I10
sg3
(lp141
I59
aI102
asg5
(lp142
I39
aI107
asg7
I2
sa(dp143
g2
I-74
sg3
(lp144
I68
aI139
asg5
(lp145
I59
aI102
asg7
I1
sa(dp146
g2
I108
sg3
(lp147
I85
aI80
asg5
(lp148
I68
aI139
asg7
I2
sa(dp149
g2
I-24
sg3
(lp150
I97
aI60
asg5
(lp151
I85
aI80
asg7
I0
sa(dp152
g2
I-32
sg3
(lp153
I113
aI55
asg5
(lp154
I97
aI60
asg7
I1
sa(dp155
g2
I-28
sg3
(lp156
I127
aI56
asg5
(lp157
I113
aI55
asg7
I2
sa(dp158
g2
I-24
sg3
(lp159
I139
aI52
asg5
(lp160
I127
aI56
asg7
I0
sa(dp161
g2
I-24
sg3
(lp162
I151
aI54
asg5
(lp163
I139
aI52
asg7
I0
sa(dp164
g2
I-18
sg3
(lp165
I160
aI33
asg5
(lp166
I151
aI54
asg7
I0
sa(dp167
g2
I-2
sg3
(lp168
I161
aI32
asg5
(lp169
I160
aI33
asg7
I1
sa(dp170
g2
I0
sg3
(lp171
I161
aI31
asg5
(lp172
I161
aI32
asg7
I1
sa(dp173
g2
I2
sg3
(lp174
I160
aI30
asg5
(lp175
I161
aI31
asg7
I1
sa(dp176
g2
I6
sg3
(lp177
I157
aI33
asg5
(lp178
I160
aI30
asg7
I1
sa(dp179
g2
I8
sg3
(lp180
I153
aI28
asg5
(lp181
I157
aI33
asg7
I1
sa(dp182
g2
I16
sg3
(lp183
I145
aI14
asg5
(lp184
I153
aI28
asg7
I1
sa(dp185
g2
I20
sg3
(lp186
I135
aI21
asg5
(lp187
I145
aI14
asg7
I1
sa(dp188
g2
I-26
sg3
(lp189
I148
aI24
asg5
(lp190
I135
aI21
asg7
I1
sa(dp191
g2
I26
sg3
(lp192
I135
aI19
asg5
(lp193
I148
aI24
asg7
I1
sa(dp194
g2
I60
sg3
(lp195
I105
aI23
asg5
(lp196
I135
aI19
asg7
I1
sa(dp197
g2
I26
sg3
(lp198
I92
aI38
asg5
(lp199
I105
aI23
asg7
I1
sa(dp200
g2
I32
sg3
(lp201
I76
aI41
asg5
(lp202
I92
aI38
asg7
I1
sa(dp203
g2
I30
sg3
(lp204
I57
aI61
asg5
(lp205
I76
aI41
asg7
I0
sa(dp206
g2
I-28
sg3
(lp207
I68
aI75
asg5
(lp208
I57
aI61
asg7
I1
sa(dp209
g2
I-22
sg3
(lp210
I40
aI86
asg5
(lp211
I68
aI75
asg7
I1
sa(dp212
g2
I-22
sg3
(lp213
I33
aI97
asg5
(lp214
I40
aI86
asg7
I2
sa(dp215
g2
I-20
sg3
(lp216
I35
aI107
asg5
(lp217
I33
aI97
asg7
I2
sa(dp218
g2
I-20
sg3
(lp219
I26
aI117
asg5
(lp220
I35
aI107
asg7
I2
sa(dp221
g2
I-10
sg3
(lp222
I18
aI122
asg5
(lp223
I26
aI117
asg7
I2
sa(dp224
g2
I-10
sg3
(lp225
I15
aI127
asg5
(lp226
I18
aI122
asg7
I2
sa(dp227
g2
I2
sg3
(lp228
I22
aI126
asg5
(lp229
I15
aI127
asg7
I2
sa(dp230
g2
I20
sg3
(lp231
I18
aI116
asg5
(lp232
I22
aI126
asg7
I2
sa(dp233
g2
I20
sg3
(lp234
I29
aI106
asg5
(lp235
I18
aI116
asg7
I2
sa(dp236
g2
I34
sg3
(lp237
I28
aI89
asg5
(lp238
I29
aI106
asg7
I2
sa(dp239
g2
I20
sg3
(lp240
I25
aI79
asg5
(lp241
I28
aI89
asg7
I2
sa(dp242
g2
I54
sg3
(lp243
I35
aI52
asg5
(lp244
I25
aI79
asg7
I2
sa(dp245
g2
I-10
sg3
(lp246
I41
aI57
asg5
(lp247
I35
aI52
asg7
I2
sa(dp248
g2
I12
sg3
(lp249
I51
aI40
asg5
(lp250
I41
aI57
asg7
I2
sa(dp251
g2
I-26
sg3
(lp252
I64
aI42
asg5
(lp253
I51
aI40
asg7
I2
sa(dp254
g2
I-22
sg3
(lp255
I75
aI25
asg5
(lp256
I64
aI42
asg7
I1
sa(dp257
g2
I-20
sg3
(lp258
I85
aI10
asg5
(lp259
I75
aI25
asg7
I2
sa(dp260
g2
I-20
sg3
(lp261
I95
aI16
asg5
(lp262
I85
aI10
asg7
I1
sa(dp263
g2
I-22
sg3
(lp264
I106
aI11
asg5
(lp265
I95
aI16
asg7
I1
sa(dp266
g2
I0
sg3
(lp267
I106
aI12
asg5
(lp268
I106
aI11
asg7
I1
sa(dp269
g2
I-6
sg3
(lp270
I109
aI19
asg5
(lp271
I106
aI12
asg7
I1
sa(dp272
g2
I32
sg3
(lp273
I93
aI14
asg5
(lp274
I109
aI19
asg7
I1
sa(dp275
g2
I-16
sg3
(lp276
I101
aI21
asg5
(lp277
I93
aI14
asg7
I2
sa(dp278
g2
I-10
sg3
(lp279
I106
aI19
asg5
(lp280
I101
aI21
asg7
I0
sa(dp281
g2
I8
sg3
(lp282
I102
aI8
asg5
(lp283
I106
aI19
asg7
I1
sa(dp284
g2
I14
sg3
(lp285
I95
aI19
asg5
(lp286
I102
aI8
asg7
I1
sa(dp287
g2
I34
sg3
(lp288
I78
aI24
asg5
(lp289
I95
aI19
asg7
I1
sa(dp290
g2
I-4
sg3
(lp291
I80
aI25
asg5
(lp292
I78
aI24
asg7
I1
sa(dp293
g2
I38
sg3
(lp294
I61
aI33
asg5
(lp295
I80
aI25
asg7
I1
sa(dp296
g2
I10
sg3
(lp297
I56
aI27
asg5
(lp298
I61
aI33
asg7
I1
sa(dp299
g2
I30
sg3
(lp300
I41
aI34
asg5
(lp301
I56
aI27
asg7
I1
sa(dp302
g2
I2
sg3
(lp303
I40
aI37
asg5
(lp304
I41
aI34
asg7
I1
sa(dp305
g2
I-14
sg3
(lp306
I27
aI47
asg5
(lp307
I40
aI37
asg7
I1
sa(dp308
g2
I2
sg3
(lp309
I30
aI46
asg5
(lp310
I27
aI47
asg7
I0
sa(dp311
g2
I-54
sg3
(lp312
I11
aI73
asg5
(lp313
I30
aI46
asg7
I1
sa(dp314
g2
I-34
sg3
(lp315
I13
aI90
asg5
(lp316
I11
aI73
asg7
I2
sa(dp317
g2
I-28
sg3
(lp318
I9
aI104
asg5
(lp319
I13
aI90
asg7
I2
sa(dp320
g2
I-40
sg3
(lp321
I12
aI124
asg5
(lp322
I9
aI104
asg7
I1
sa(dp323
g2
I-16
sg3
(lp324
I13
aI132
asg5
(lp325
I12
aI124
asg7
I2
sa(dp326
g2
I-6
sg3
(lp327
I19
aI135
asg5
(lp328
I13
aI132
asg7
I2
sa(dp329
g2
I8
sg3
(lp330
I19
aI131
asg5
(lp331
I19
aI135
asg7
I2
sa(dp332
g2
I2
sg3
(lp333
I20
aI130
asg5
(lp334
I19
aI131
asg7
I2
sa(dp335
g2
I14
sg3
(lp336
I21
aI123
asg5
(lp337
I20
aI130
asg7
I2
sa(dp338
g2
I26
sg3
(lp339
I18
aI110
asg5
(lp340
I21
aI123
asg7
I2
sa(dp341
g2
I6
sg3
(lp342
I25
aI107
asg5
(lp343
I18
aI110
asg7
I2
sa(dp344
g2
I36
sg3
(lp345
I33
aI89
asg5
(lp346
I25
aI107
asg7
I2
sa(dp347
g2
I44
sg3
(lp348
I41
aI67
asg5
(lp349
I33
aI89
asg7
I2
sa(dp350
g2
I16
sg3
(lp351
I49
aI59
asg5
(lp352
I41
aI67
asg7
I2
sa(dp353
g2
I-14
sg3
(lp354
I48
aI66
asg5
(lp355
I49
aI59
asg7
I2
sa(dp356
g2
I18
sg3
(lp357
I55
aI57
asg5
(lp358
I48
aI66
asg7
I2
sa(dp359
g2
I-14
sg3
(lp360
I64
aI40
asg5
(lp361
I55
aI57
asg7
I2
sa(dp362
g2
I-22
sg3
(lp363
I75
aI24
asg5
(lp364
I64
aI40
asg7
I1
sa(dp365
g2
I-20
sg3
(lp366
I85
aI15
asg5
(lp367
I75
aI24
asg7
I2
sa(dp368
g2
I-16
sg3
(lp369
I93
aI16
asg5
(lp370
I85
aI15
asg7
I1
sa(dp371
g2
I-8
sg3
(lp372
I97
aI14
asg5
(lp373
I93
aI16
asg7
I1
sa(dp374
g2
I-4
sg3
(lp375
I99
aI16
asg5
(lp376
I97
aI14
asg7
I1
sa(dp377
g2
I-12
sg3
(lp378
I105
aI15
asg5
(lp379
I99
aI16
asg7
I1
sa(dp380
g2
I-32
sg3
(lp381
I121
aI11
asg5
(lp382
I105
aI15
asg7
I2
sa(dp383
g2
I-8
sg3
(lp384
I125
aI17
asg5
(lp385
I121
aI11
asg7
I1
sa(dp386
g2
I-2
sg3
(lp387
I126
aI12
asg5
(lp388
I125
aI17
asg7
I1
sa(dp389
g2
I30
sg3
(lp390
I111
aI17
asg5
(lp391
I126
aI12
asg7
I1
sa(dp392
g2
I4
sg3
(lp393
I109
aI19
asg5
(lp394
I111
aI17
asg7
I2
sa(dp395
g2
I32
sg3
(lp396
I93
aI16
asg5
(lp397
I109
aI19
asg7
I1
sa(dp398
g2
I10
sg3
(lp399
I88
aI34
asg5
(lp400
I93
aI16
asg7
I1
sa(dp401
g2
I18
sg3
(lp402
I79
aI27
asg5
(lp403
I88
aI34
asg7
I1
sa(dp404
g2
I30
sg3
(lp405
I64
aI30
asg5
(lp406
I79
aI27
asg7
I1
sa(dp407
g2
I18
sg3
(lp408
I55
aI34
asg5
(lp409
I64
aI30
asg7
I1
sa(dp410
g2
I22
sg3
(lp411
I44
aI37
asg5
(lp412
I55
aI34
asg7
I1
sa(dp413
g2
I-6
sg3
(lp414
I38
aI47
asg5
(lp415
I44
aI37
asg7
I1
sa(dp416
g2
I-24
sg3
(lp417
I27
aI59
asg5
(lp418
I38
aI47
asg7
I1
sa(dp419
g2
I-24
sg3
(lp420
I31
aI71
asg5
(lp421
I27
aI59
asg7
I1
sa(dp422
g2
I-18
sg3
(lp423
I20
aI80
asg5
(lp424
I31
aI71
asg7
I2
sa(dp425
g2
I-28
sg3
(lp426
I18
aI94
asg5
(lp427
I20
aI80
asg7
I2
sa(dp428
g2
I-10
sg3
(lp429
I10
aI99
asg5
(lp430
I18
aI94
asg7
I2
sa(dp431
g2
I-16
sg3
(lp432
I15
aI107
asg5
(lp433
I10
aI99
asg7
I2
sa(dp434
g2
I-16
sg3
(lp435
I22
aI115
asg5
(lp436
I15
aI107
asg7
I2
sa(dp437
g2
I6
sg3
(lp438
I15
aI112
asg5
(lp439
I22
aI115
asg7
I1
sa(dp440
g2
I0
sg3
(lp441
I17
aI112
asg5
(lp442
I15
aI112
asg7
I2
sa(dp443
g2
I8
sg3
(lp444
I24
aI108
asg5
(lp445
I17
aI112
asg7
I2
sa(dp446
g2
I42
sg3
(lp447
I22
aI87
asg5
(lp448
I24
aI108
asg7
I0
sa(dp449
g2
I12
sg3
(lp450
I17
aI81
asg5
(lp451
I22
aI87
asg7
I2
sa(dp452
g2
I0
sg3
(lp453
I23
aI81
asg5
(lp454
I17
aI81
asg7
I2
sa(dp455
g2
I22
sg3
(lp456
I17
aI70
asg5
(lp457
I23
aI81
asg7
I2
sa(dp458
g2
I4
sg3
(lp459
I31
aI68
asg5
(lp460
I17
aI70
asg7
I2
sa(dp461
g2
I40
sg3
(lp462
I40
aI48
asg5
(lp463
I31
aI68
asg7
I2
sa(dp464
g2
I-26
sg3
(lp465
I61
aI52
asg5
(lp466
I40
aI48
asg7
I2
sa(dp467
g2
I-44
sg3
(lp468
I83
aI35
asg5
(lp469
I61
aI52
asg7
I2
sa(dp470
g2
I-14
sg3
(lp471
I90
aI23
asg5
(lp472
I83
aI35
asg7
I1
sa(dp473
g2
I-26
sg3
(lp474
I103
aI15
asg5
(lp475
I90
aI23
asg7
I1
sa(dp476
g2
I-16
sg3
(lp477
I111
aI9
asg5
(lp478
I103
aI15
asg7
I1
sa(dp479
g2
I2
sg3
(lp480
I110
aI14
asg5
(lp481
I111
aI9
asg7
I1
sa(dp482
g2
I8
sg3
(lp483
I106
aI21
asg5
(lp484
I110
aI14
asg7
I1
sa(dp485
g2
I6
sg3
(lp486
I103
aI20
asg5
(lp487
I106
aI21
asg7
I1
sa(dp488
g2
I42
sg3
(lp489
I82
aI14
asg5
(lp490
I103
aI20
asg7
I1
sa(dp491
g2
I16
sg3
(lp492
I74
aI22
asg5
(lp493
I82
aI14
asg7
I1
sa(dp494
g2
I40
sg3
(lp495
I54
aI28
asg5
(lp496
I74
aI22
asg7
I1
sa(dp497
g2
I10
sg3
(lp498
I49
aI38
asg5
(lp499
I54
aI28
asg7
I1
sa(dp500
g2
I-2
sg3
(lp501
I35
aI50
asg5
(lp502
I49
aI38
asg7
I1
sa(dp503
g2
I-14
sg3
(lp504
I22
aI57
asg5
(lp505
I35
aI50
asg7
I1
sa(dp506
g2
I-16
sg3
(lp507
I15
aI65
asg5
(lp508
I22
aI57
asg7
I1
sa(dp509
g2
I-28
sg3
(lp510
I11
aI79
asg5
(lp511
I15
aI65
asg7
I2
sa(dp512
g2
I-32
sg3
(lp513
I13
aI95
asg5
(lp514
I11
aI79
asg7
I2
sa(dp515
g2
I-20
sg3
(lp516
I12
aI105
asg5
(lp517
I13
aI95
asg7
I2
sa(dp518
g2
I0
sg3
(lp519
I26
aI105
asg5
(lp520
I12
aI105
asg7
I2
sa(dp521
g2
I0
sg3
(lp522
I18
aI105
asg5
(lp523
I26
aI105
asg7
I2
sa(dp524
g2
I-4
sg3
(lp525
I19
aI107
asg5
(lp526
I18
aI105
asg7
I2
sa(dp527
g2
I16
sg3
(lp528
I19
aI99
asg5
(lp529
I19
aI107
asg7
I2
sa(dp530
g2
I22
sg3
(lp531
I20
aI88
asg5
(lp532
I19
aI99
asg7
I2
sa(dp533
g2
I36
sg3
(lp534
I27
aI70
asg5
(lp535
I20
aI88
asg7
I2
sa(dp536
g2
I6
sg3
(lp537
I24
aI67
asg5
(lp538
I27
aI70
asg7
I2
sa(dp539
g2
I12
sg3
(lp540
I33
aI61
asg5
(lp541
I24
aI67
asg7
I2
sa(dp542
g2
I2
sg3
(lp543
I45
aI60
asg5
(lp544
I33
aI61
asg7
I2
sa(dp545
g2
I16
sg3
(lp546
I52
aI46
asg5
(lp547
I45
aI60
asg7
I2
sa(dp548
g2
I-50
sg3
(lp549
I77
aI33
asg5
(lp550
I52
aI46
asg7
I2
sa(dp551
g2
I-26
sg3
(lp552
I90
aI22
asg5
(lp553
I77
aI33
asg7
I1
sa(dp554
g2
I-52
sg3
(lp555
I116
aI14
asg5
(lp556
I90
aI22
asg7
I1
sa(dp557
g2
I-14
sg3
(lp558
I123
aI7
asg5
(lp559
I116
aI14
asg7
I1
sa(dp560
g2
I-10
sg3
(lp561
I128
aI24
asg5
(lp562
I123
aI7
asg7
I1
sa(dp563
g2
I6
sg3
(lp564
I125
aI21
asg5
(lp565
I128
aI24
asg7
I1
sa(dp566
g2
I6
sg3
(lp567
I122
aI22
asg5
(lp568
I125
aI21
asg7
I1
sa(dp569
g2
I26
sg3
(lp570
I109
aI25
asg5
(lp571
I122
aI22
asg7
I1
sa(dp572
g2
I46
sg3
(lp573
I86
aI29
asg5
(lp574
I109
aI25
asg7
I1
sa(dp575
g2
I-20
sg3
(lp576
I96
aI22
asg5
(lp577
I86
aI29
asg7
I1
sa(dp578
g2
I84
sg3
(lp579
I54
aI27
asg5
(lp580
I96
aI22
asg7
I1
sa(dp581
g2
I20
sg3
(lp582
I44
aI36
asg5
(lp583
I54
aI27
asg7
I1
sa(dp584
g2
I-4
sg3
(lp585
I30
aI46
asg5
(lp586
I44
aI36
asg7
I1
sa(dp587
g2
I-16
sg3
(lp588
I30
aI54
asg5
(lp589
I30
aI46
asg7
I1
sa(dp590
g2
I-16
sg3
(lp591
I27
aI62
asg5
(lp592
I30
aI54
asg7
I1
sa(dp593
g2
I-42
sg3
(lp594
I30
aI83
asg5
(lp595
I27
aI62
asg7
I2
sa(dp596
g2
I-20
sg3
(lp597
I27
aI93
asg5
(lp598
I30
aI83
asg7
I2
sa(dp599
g2
I-12
sg3
(lp600
I22
aI99
asg5
(lp601
I27
aI93
asg7
I2
sa(dp602
g2
I2
sg3
(lp603
I21
aI98
asg5
(lp604
I22
aI99
asg7
I2
sa(dp605
g2
I-8
sg3
(lp606
I21
aI102
asg5
(lp607
I21
aI98
asg7
I2
sa(dp608
g2
I8
sg3
(lp609
I18
aI98
asg5
(lp610
I21
aI102
asg7
I2
sa(dp611
g2
I4
sg3
(lp612
I18
aI96
asg5
(lp613
I18
aI98
asg7
I2
sa(dp614
g2
I12
sg3
(lp615
I26
aI90
asg5
(lp616
I18
aI96
asg7
I2
sa(dp617
g2
I36
sg3
(lp618
I23
aI72
asg5
(lp619
I26
aI90
asg7
I2
sa(dp620
g2
I24
sg3
(lp621
I28
aI60
asg5
(lp622
I23
aI72
asg7
I2
sa(dp623
g2
I20
sg3
(lp624
I35
aI50
asg5
(lp625
I28
aI60
asg7
I2
sa(dp626
g2
I-4
sg3
(lp627
I41
aI52
asg5
(lp628
I35
aI50
asg7
I0
sa(dp629
g2
I14
sg3
(lp630
I45
aI35
asg5
(lp631
I41
aI52
asg7
I2
sa(dp632
g2
I-30
sg3
(lp633
I60
aI27
asg5
(lp634
I45
aI35
asg7
I2
sa(dp635
g2
I-24
sg3
(lp636
I72
aI13
asg5
(lp637
I60
aI27
asg7
I2
sa(dp638
g2
I-38
sg3
(lp639
I91
aI16
asg5
(lp640
I72
aI13
asg7
I1
sa(dp641
g2
I-28
sg3
(lp642
I105
aI15
asg5
(lp643
I91
aI16
asg7
I1
sa(dp644
g2
I-34
sg3
(lp645
I122
aI14
asg5
(lp646
I105
aI15
asg7
I1
sa(dp647
g2
I22
sg3
(lp648
I111
aI24
asg5
(lp649
I122
aI14
asg7
I1
sa(dp650
g2
I-16
sg3
(lp651
I119
aI20
asg5
(lp652
I111
aI24
asg7
I1
sa(dp653
g2
I46
sg3
(lp654
I96
aI23
asg5
(lp655
I119
aI20
asg7
I1
sa(dp656
g2
I4
sg3
(lp657
I94
aI24
asg5
(lp658
I96
aI23
asg7
I1
sa(dp659
g2
I60
sg3
(lp660
I64
aI17
asg5
(lp661
I94
aI24
asg7
I1
sa(dp662
g2
I-18
sg3
(lp663
I73
aI22
asg5
(lp664
I64
aI17
asg7
I1
sa(dp665
g2
I24
sg3
(lp666
I61
aI22
asg5
(lp667
I73
aI22
asg7
I1
sa(dp668
g2
I-10
sg3
(lp669
I66
aI22
asg5
(lp670
I61
aI22
asg7
I1
sa(dp671
g2
I8
sg3
(lp672
I62
aI25
asg5
(lp673
I66
aI22
asg7
I1
sa(dp674
g2
I34
sg3
(lp675
I45
aI35
asg5
(lp676
I62
aI25
asg7
I1
sa(dp677
g2
I-18
sg3
(lp678
I36
aI54
asg5
(lp679
I45
aI35
asg7
I1
sa(dp680
g2
I-18
sg3
(lp681
I18
aI63
asg5
(lp682
I36
aI54
asg7
I2
sa(dp683
g2
I-16
sg3
(lp684
I19
aI71
asg5
(lp685
I18
aI63
asg7
I2
sa(dp686
g2
I-2
sg3
(lp687
I15
aI72
asg5
(lp688
I19
aI71
asg7
I2
sa(dp689
g2
I-4
sg3
(lp690
I23
aI74
asg5
(lp691
I15
aI72
asg7
I2
sa(dp692
g2
I-16
sg3
(lp693
I17
aI82
asg5
(lp694
I23
aI74
asg7
I2
sa(dp695
g2
I18
sg3
(lp696
I21
aI73
asg5
(lp697
I17
aI82
asg7
I2
sa(dp698
g2
I10
sg3
(lp699
I19
aI68
asg5
(lp700
I21
aI73
asg7
I2
sa(dp701
g2
I-8
sg3
(lp702
I20
aI72
asg5
(lp703
I19
aI68
asg7
I2
sa(dp704
g2
I20
sg3
(lp705
I27
aI62
asg5
(lp706
I20
aI72
asg7
I2
sa(dp707
g2
I4
sg3
(lp708
I29
aI60
asg5
(lp709
I27
aI62
asg7
I2
sa(dp710
g2
I28
sg3
(lp711
I28
aI46
asg5
(lp712
I29
aI60
asg7
I2
sa(dp713
g2
I12
sg3
(lp714
I40
aI31
asg5
(lp715
I28
aI46
asg7
I2
sa(dp716
g2
I-8
sg3
(lp717
I44
aI23
asg5
(lp718
I40
aI31
asg7
I2
sa(dp719
g2
I-24
sg3
(lp720
I56
aI17
asg5
(lp721
I44
aI23
asg7
I2
sa(dp722
g2
I-30
sg3
(lp723
I71
aI14
asg5
(lp724
I56
aI17
asg7
I1
sa(dp725
g2
I-16
sg3
(lp726
I79
aI8
asg5
(lp727
I71
aI14
asg7
I1
sa(dp728
g2
I-4
sg3
(lp729
I81
aI12
asg5
(lp730
I79
aI8
asg7
I1
sa(dp731
g2
I-28
sg3
(lp732
I95
aI14
asg5
(lp733
I81
aI12
asg7
I1
sa(dp734
g2
I0
sg3
(lp735
I95
aI15
asg5
(lp736
I95
aI14
asg7
I1
sa(dp737
g2
I8
sg3
(lp738
I91
aI21
asg5
(lp739
I95
aI15
asg7
I1
sa(dp740
g2
I24
sg3
(lp741
I79
aI24
asg5
(lp742
I91
aI21
asg7
I1
sa(dp743
g2
I8
sg3
(lp744
I75
aI22
asg5
(lp745
I79
aI24
asg7
I1
sa(dp746
g2
I38
sg3
(lp747
I56
aI20
asg5
(lp748
I75
aI22
asg7
I1
sa(dp749
g2
I10
sg3
(lp750
I51
aI25
asg5
(lp751
I56
aI20
asg7
I1
sa(dp752
g2
I12
sg3
(lp753
I45
aI35
asg5
(lp754
I51
aI25
asg7
I1
sa(dp755
g2
I10
sg3
(lp756
I33
aI40
asg5
(lp757
I45
aI35
asg7
I1
sa(dp758
g2
I-28
sg3
(lp759
I25
aI54
asg5
(lp760
I33
aI40
asg7
I1
sa(dp761
g2
I-32
sg3
(lp762
I19
aI70
asg5
(lp763
I25
aI54
asg7
I1
sa(dp764
g2
I-22
sg3
(lp765
I20
aI81
asg5
(lp766
I19
aI70
asg7
I2
sa(dp767
g2
I-18
sg3
(lp768
I16
aI90
asg5
(lp769
I20
aI81
asg7
I2
sa(dp770
g2
I-18
sg3
(lp771
I19
aI99
asg5
(lp772
I16
aI90
asg7
I2
sa(dp773
g2
I-8
sg3
(lp774
I16
aI103
asg5
(lp775
I19
aI99
asg7
I2
sa(dp776
g2
I-2
sg3
(lp777
I15
aI104
asg5
(lp778
I16
aI103
asg7
I2
sa(dp779
g2
I2
sg3
(lp780
I16
aI103
asg5
(lp781
I15
aI104
asg7
I2
sa(dp782
g2
I12
sg3
(lp783
I22
aI97
asg5
(lp784
I16
aI103
asg7
I2
sa(dp785
g2
I36
sg3
(lp786
I20
aI79
asg5
(lp787
I22
aI97
asg7
I2
sa(dp788
g2
I34
sg3
(lp789
I19
aI62
asg5
(lp790
I20
aI79
asg7
I2
sa(dp791
g2
I-4
sg3
(lp792
I27
aI64
asg5
(lp793
I19
aI62
asg7
I2
sa(dp794
g2
I-6
sg3
(lp795
I19
aI67
asg5
(lp796
I27
aI64
asg7
I2
sa(dp797
g2
I28
sg3
(lp798
I28
aI53
asg5
(lp799
I19
aI67
asg7
I2
sa(dp800
g2
I14
sg3
(lp801
I39
aI46
asg5
(lp802
I28
aI53
asg7
I2
sa(dp803
g2
I0
sg3
(lp804
I46
aI37
asg5
(lp805
I39
aI46
asg7
I2
sa(dp806
g2
I-30
sg3
(lp807
I61
aI29
asg5
(lp808
I46
aI37
asg7
I1
sa(dp809
g2
I-12
sg3
(lp810
I67
aI18
asg5
(lp811
I61
aI29
asg7
I1
sa(dp812
g2
I-6
sg3
(lp813
I70
aI11
asg5
(lp814
I67
aI18
asg7
I1
sa(dp815
g2
I-6
sg3
(lp816
I73
aI18
asg5
(lp817
I70
aI11
asg7
I1
sa(dp818
g2
I10
sg3
(lp819
I68
aI26
asg5
(lp820
I73
aI18
asg7
I1
sa(dp821
g2
I6
sg3
(lp822
I65
aI24
asg5
(lp823
I68
aI26
asg7
I1
sa(dp824
g2
I4
sg3
(lp825
I63
aI24
asg5
(lp826
I65
aI24
asg7
I1
sa(dp827
g2
I20
sg3
(lp828
I53
aI18
asg5
(lp829
I63
aI24
asg7
I1
sa(dp830
g2
I22
sg3
(lp831
I42
aI24
asg5
(lp832
I53
aI18
asg7
I1
sa(dp833
g2
I14
sg3
(lp834
I35
aI29
asg5
(lp835
I42
aI24
asg7
I1
sa(dp836
g2
I-6
sg3
(lp837
I25
aI38
asg5
(lp838
I35
aI29
asg7
I1
sa(dp839
g2
I-8
sg3
(lp840
I22
aI42
asg5
(lp841
I25
aI38
asg7
I1
sa(dp842
g2
I-4
sg3
(lp843
I17
aI44
asg5
(lp844
I22
aI42
asg7
I2
sa(dp845
g2
I0
sg3
(lp846
I17
aI44
asg5
(lp847
I17
aI44
asg7
I2
sa(dp848
g2
I0
sg3
(lp849
I18
aI44
asg5
(lp850
I17
aI44
asg7
I2
sa(dp851
g2
I2
sg3
(lp852
I21
aI43
asg5
(lp853
I18
aI44
asg7
I2
sa(dp854
g2
I12
sg3
(lp855
I22
aI37
asg5
(lp856
I21
aI43
asg7
I2
sa(dp857
g2
I18
sg3
(lp858
I23
aI28
asg5
(lp859
I22
aI37
asg7
I2
sa(dp860
g2
I0
sg3
(lp861
I28
aI24
asg5
(lp862
I23
aI28
asg7
I2
sa(dp863
g2
I-4
sg3
(lp864
I30
aI21
asg5
(lp865
I28
aI24
asg7
I2
sa(dp866
g2
I4
sg3
(lp867
I28
aI22
asg5
(lp868
I30
aI21
asg7
I0
sa(dp869
g2
I-26
sg3
(lp870
I41
aI13
asg5
(lp871
I28
aI22
asg7
I2
sa(dp872
g2
I-2
sg3
(lp873
I42
aI15
asg5
(lp874
I41
aI13
asg7
I1
sa(dp875
g2
I6
sg3
(lp876
I39
aI21
asg5
(lp877
I42
aI15
asg7
I1
sa(dp878
g2
I6
sg3
(lp879
I36
aI16
asg5
(lp880
I39
aI21
asg7
I1
sa(dp881
g2
I16
sg3
(lp882
I28
aI18
asg5
(lp883
I36
aI16
asg7
I1
sa(dp884
g2
I-2
sg3
(lp885
I19
aI29
asg5
(lp886
I28
aI18
asg7
I1
sa(dp887
g2
I-6
sg3
(lp888
I16
aI32
asg5
(lp889
I19
aI29
asg7
I1
sa(dp890
g2
I0
sg3
(lp891
I22
aI32
asg5
(lp892
I16
aI32
asg7
I2
sa(dp893
g2
I6
sg3
(lp894
I15
aI29
asg5
(lp895
I22
aI32
asg7
I2
sa(dp896
g2
I-10
sg3
(lp897
I21
aI34
asg5
(lp898
I15
aI29
asg7
I2
sa(dp899
g2
I16
sg3
(lp900
I26
aI22
asg5
(lp901
I21
aI34
asg7
I2
sa(dp902
g2
I-4
sg3
(lp903
I28
aI25
asg5
(lp904
I26
aI22
asg7
I1
sa(dp905
g2
I-14
sg3
(lp906
I35
aI20
asg5
(lp907
I28
aI25
asg7
I2
sa(dp908
g2
I0
sg3
(lp909
I35
aI23
asg5
(lp910
I35
aI20
asg7
I1
sa(dp911
g2
I8
sg3
(lp912
I31
aI19
asg5
(lp913
I35
aI23
asg7
I1
sa(dp914
g2
I8
sg3
(lp915
I27
aI21
asg5
(lp916
I31
aI19
asg7
I1
sa(dp917
g2
I-8
sg3
(lp918
I31
aI24
asg5
(lp919
I27
aI21
asg7
I1
sa(dp920
g2
I-6
sg3
(lp921
I34
aI22
asg5
(lp922
I31
aI24
asg7
I2
sa(dp923
g2
I8
sg3
(lp924
I30
aI24
asg5
(lp925
I34
aI22
asg7
I1
sa(dp926
g2
I4
sg3
(lp927
I28
aI18
asg5
(lp928
I30
aI24
asg7
I1
sa(dp929
g2
I12
sg3
(lp930
I22
aI18
asg5
(lp931
I28
aI18
asg7
I1
sa(dp932
g2
I-4
sg3
(lp933
I15
aI24
asg5
(lp934
I22
aI18
asg7
I0
sa(dp935
g2
I-2
sg3
(lp936
I17
aI25
asg5
(lp937
I15
aI24
asg7
I0
sa(dp938
g2
I-20
sg3
(lp939
I17
aI35
asg5
(lp940
I17
aI25
asg7
I1
sa(dp941
g2
I-8
sg3
(lp942
I20
aI39
asg5
(lp943
I17
aI35
asg7
I2
sa(dp944
g2
I-6
sg3
(lp945
I17
aI42
asg5
(lp946
I20
aI39
asg7
I2
sa(dp947
g2
I6
sg3
(lp948
I21
aI39
asg5
(lp949
I17
aI42
asg7
I2
sa(dp950
g2
I-10
sg3
(lp951
I24
aI44
asg5
(lp952
I21
aI39
asg7
I0
sa(dp953
g2
I4
sg3
(lp954
I20
aI42
asg5
(lp955
I24
aI44
asg7
I2
sa(dp956
g2
I6
sg3
(lp957
I16
aI39
asg5
(lp958
I20
aI42
asg7
I2
sa(dp959
g2
I2
sg3
(lp960
I15
aI38
asg5
(lp961
I16
aI39
asg7
I2
sa(dp962
g2
I6
sg3
(lp963
I21
aI35
asg5
(lp964
I15
aI38
asg7
I2
sa(dp965
g2
I10
sg3
(lp966
I21
aI30
asg5
(lp967
I21
aI35
asg7
I2
sa(dp968
g2
I-4
sg3
(lp969
I32
aI31
asg5
(lp970
I21
aI30
asg7
I2
sa(dp971
g2
I-34
sg3
(lp972
I49
aI14
asg5
(lp973
I32
aI31
asg7
I2
sa(dp974
g2
I-10
sg3
(lp975
I54
aI15
asg5
(lp976
I49
aI14
asg7
I1
sa(dp977
g2
I10
sg3
(lp978
I49
aI19
asg5
(lp979
I54
aI15
asg7
I0
sa(dp980
g2
I-10
sg3
(lp981
I54
aI15
asg5
(lp982
I49
aI19
asg7
I1
sa(dp983
g2
I-2
sg3
(lp984
I55
aI15
asg5
(lp985
I54
aI15
asg7
I1
sa(dp986
g2
I2
sg3
(lp987
I54
aI22
asg5
(lp988
I55
aI15
asg7
I1
sa(dp989
g2
I12
sg3
(lp990
I48
aI19
asg5
(lp991
I54
aI22
asg7
I1
sa(dp992
g2
I16
sg3
(lp993
I40
aI27
asg5
(lp994
I48
aI19
asg7
I1
sa(dp995
g2
I8
sg3
(lp996
I36
aI35
asg5
(lp997
I40
aI27
asg7
I1
sa(dp998
g2
I-4
sg3
(lp999
I32
aI38
asg5
(lp1000
I36
aI35
asg7
I1
sa(dp1001
g2
I-2
sg3
(lp1002
I30
aI39
asg5
(lp1003
I32
aI38
asg7
I1
sa(dp1004
g2
I-16
sg3
(lp1005
I21
aI47
asg5
(lp1006
I30
aI39
asg7
I1
sa(dp1007
g2
I-20
sg3
(lp1008
I20
aI57
asg5
(lp1009
I21
aI47
asg7
I2
sa(dp1010
g2
I-26
sg3
(lp1011
I17
aI70
asg5
(lp1012
I20
aI57
asg7
I2
sa(dp1013
g2
I-8
sg3
(lp1014
I18
aI74
asg5
(lp1015
I17
aI70
asg7
I2
sa(dp1016
g2
I-4
sg3
(lp1017
I19
aI76
asg5
(lp1018
I18
aI74
asg7
I2
sa(dp1019
g2
I10
sg3
(lp1020
I18
aI71
asg5
(lp1021
I19
aI76
asg7
I1
sa(dp1022
g2
I0
sg3
(lp1023
I19
aI71
asg5
(lp1024
I18
aI71
asg7
I0
sa(dp1025
g2
I-18
sg3
(lp1026
I19
aI80
asg5
(lp1027
I19
aI71
asg7
I2
sa(dp1028
g2
I22
sg3
(lp1029
I23
aI69
asg5
(lp1030
I19
aI80
asg7
I2
sa(dp1031
g2
I30
sg3
(lp1032
I27
aI54
asg5
(lp1033
I23
aI69
asg7
I2
sa(dp1034
g2
I14
sg3
(lp1035
I29
aI47
asg5
(lp1036
I27
aI54
asg7
I2
sa(dp1037
g2
I18
sg3
(lp1038
I38
aI28
asg5
(lp1039
I29
aI47
asg7
I2
sa(dp1040
g2
I2
sg3
(lp1041
I37
aI21
asg5
(lp1042
I38
aI28
asg7
I2
sa(dp1043
g2
I-28
sg3
(lp1044
I51
aI16
asg5
(lp1045
I37
aI21
asg7
I2
sa(dp1046
g2
I-12
sg3
(lp1047
I57
aI12
asg5
(lp1048
I51
aI16
asg7
I1
sa(dp1049
g2
I12
sg3
(lp1050
I51
aI20
asg5
(lp1051
I57
aI12
asg7
I1
sa(dp1052
g2
I-8
sg3
(lp1053
I55
aI19
asg5
(lp1054
I51
aI20
asg7
I1
sa(dp1055
g2
I-8
sg3
(lp1056
I59
aI14
asg5
(lp1057
I55
aI19
asg7
I1
sa(dp1058
g2
I-4
sg3
(lp1059
I61
aI18
asg5
(lp1060
I59
aI14
asg7
I1
sa(dp1061
g2
I12
sg3
(lp1062
I55
aI18
asg5
(lp1063
I61
aI18
asg7
I1
sa(dp1064
g2
I22
sg3
(lp1065
I44
aI25
asg5
(lp1066
I55
aI18
asg7
I1
sa(dp1067
g2
I20
sg3
(lp1068
I34
aI18
asg5
(lp1069
I44
aI25
asg7
I1
sa(dp1070
g2
I10
sg3
(lp1071
I27
aI29
asg5
(lp1072
I34
aI18
asg7
I1
sa(dp1073
g2
I-14
sg3
(lp1074
I21
aI36
asg5
(lp1075
I27
aI29
asg7
I1
sa(dp1076
g2
I-22
sg3
(lp1077
I14
aI47
asg5
(lp1078
I21
aI36
asg7
I1
sa(dp1079
g2
I-20
sg3
(lp1080
I14
aI57
asg5
(lp1081
I14
aI47
asg7
I2
sa(dp1082
g2
I-26
sg3
(lp1083
I14
aI70
asg5
(lp1084
I14
aI57
asg7
I2
sa(dp1085
g2
I-4
sg3
(lp1086
I20
aI72
asg5
(lp1087
I14
aI70
asg7
I2
sa(dp1088
g2
I-6
sg3
(lp1089
I15
aI75
asg5
(lp1090
I20
aI72
asg7
I2
sa(dp1091
g2
I-8
sg3
(lp1092
I20
aI79
asg5
(lp1093
I15
aI75
asg7
I2
sa(dp1094
g2
I14
sg3
(lp1095
I18
aI72
asg5
(lp1096
I20
aI79
asg7
I2
sa(dp1097
g2
I12
sg3
(lp1098
I23
aI66
asg5
(lp1099
I18
aI72
asg7
I2
sa(dp1100
g2
I12
sg3
(lp1101
I29
aI60
asg5
(lp1102
I23
aI66
asg7
I2
sa(dp1103
g2
I26
sg3
(lp1104
I23
aI47
asg5
(lp1105
I29
aI60
asg7
I2
sa(dp1106
g2
I-8
sg3
(lp1107
I34
aI51
asg5
(lp1108
I23
aI47
asg7
I2
sa(dp1109
g2
I26
sg3
(lp1110
I38
aI34
asg5
(lp1111
I34
aI51
asg7
I2
sa(dp1112
g2
I10
sg3
(lp1113
I33
aI24
asg5
(lp1114
I38
aI34
asg7
I1
sa(dp1115
g2
I-42
sg3
(lp1116
I54
aI23
asg5
(lp1117
I33
aI24
asg7
I2
sa(dp1118
g2
I-10
sg3
(lp1119
I59
aI16
asg5
(lp1120
I54
aI23
asg7
I1
sa(dp1121
g2
I-22
sg3
(lp1122
I70
aI14
asg5
(lp1123
I59
aI16
asg7
I1
sa(dp1124
g2
I26
sg3
(lp1125
I57
aI22
asg5
(lp1126
I70
aI14
asg7
I1
sa(dp1127
g2
I-10
sg3
(lp1128
I62
aI17
asg5
(lp1129
I57
aI22
asg7
I2
sa(dp1130
g2
I2
sg3
(lp1131
I61
aI19
asg5
(lp1132
I62
aI17
asg7
I1
sa(dp1133
g2
I-10
sg3
(lp1134
I66
aI23
asg5
(lp1135
I61
aI19
asg7
I1
sa(dp1136
g2
I-4
sg3
(lp1137
I68
aI16
asg5
(lp1138
I66
aI23
asg7
I1
sa(dp1139
g2
I18
sg3
(lp1140
I59
aI29
asg5
(lp1141
I68
aI16
asg7
I1
sa(dp1142
g2
I18
sg3
(lp1143
I50
aI39
asg5
(lp1144
I59
aI29
asg7
I1
sa(dp1145
g2
I4
sg3
(lp1146
I48
aI34
asg5
(lp1147
I50
aI39
asg7
I2
sa(dp1148
g2
I18
sg3
(lp1149
I39
aI34
asg5
(lp1150
I48
aI34
asg7
I1
sa(dp1151
g2
I4
sg3
(lp1152
I35
aI37
asg5
(lp1153
I39
aI34
asg7
I1
sa(dp1154
g2
I-6
sg3
(lp1155
I19
aI40
asg5
(lp1156
I35
aI37
asg7
I1
sa(dp1157
g2
I-26
sg3
(lp1158
I14
aI53
asg5
(lp1159
I19
aI40
asg7
I1
sa(dp1160
g2
I-10
sg3
(lp1161
I20
aI58
asg5
(lp1162
I14
aI53
asg7
I2
sa(dp1163
g2
I-16
sg3
(lp1164
I20
aI66
asg5
(lp1165
I20
aI58
asg7
I2
sa(dp1166
g2
I-16
sg3
(lp1167
I10
aI74
asg5
(lp1168
I20
aI66
asg7
I2
sa(dp1169
g2
I-2
sg3
(lp1170
I17
aI75
asg5
(lp1171
I10
aI74
asg7
I2
sa(dp1172
g2
I6
sg3
(lp1173
I25
aI72
asg5
(lp1174
I17
aI75
asg7
I2
sa(dp1175
g2
I26
sg3
(lp1176
I32
aI59
asg5
(lp1177
I25
aI72
asg7
I2
sa(dp1178
g2
I24
sg3
(lp1179
I27
aI47
asg5
(lp1180
I32
aI59
asg7
I1
sa(dp1181
g2
I18
sg3
(lp1182
I30
aI38
asg5
(lp1183
I27
aI47
asg7
I2
sa(dp1184
g2
I18
sg3
(lp1185
I29
aI29
asg5
(lp1186
I30
aI38
asg7
I2
sa(dp1187
g2
I10
sg3
(lp1188
I24
aI20
asg5
(lp1189
I29
aI29
asg7
I2
sa(dp1190
g2
I-18
sg3
(lp1191
I33
aI21
asg5
(lp1192
I24
aI20
asg7
I2
sa(dp1193
g2
I-20
sg3
(lp1194
I43
aI14
asg5
(lp1195
I33
aI21
asg7
I2
sa(dp1196
g2
I-56
sg3
(lp1197
I71
aI13
asg5
(lp1198
I43
aI14
asg7
I2
sa(dp1199
g2
I-22
sg3
(lp1200
I82
aI18
asg5
(lp1201
I71
aI13
asg7
I1
sa(dp1202
g2
I-16
sg3
(lp1203
I90
aI14
asg5
(lp1204
I82
aI18
asg7
I1
sa(dp1205
g2
I-2
sg3
(lp1206
I91
aI20
asg5
(lp1207
I90
aI14
asg7
I1
sa(dp1208
g2
I22
sg3
(lp1209
I80
aI17
asg5
(lp1210
I91
aI20
asg7
I1
sa(dp1211
g2
I2
sg3
(lp1212
I79
aI23
asg5
(lp1213
I80
aI17
asg7
I1
sa(dp1214
g2
I18
sg3
(lp1215
I70
aI23
asg5
(lp1216
I79
aI23
asg7
I1
sa(dp1217
g2
I0
sg3
(lp1218
I70
aI25
asg5
(lp1219
I70
aI23
asg7
I1
sa(dp1220
g2
I32
sg3
(lp1221
I54
aI30
asg5
(lp1222
I70
aI25
asg7
I1
sa(dp1223
g2
I8
sg3
(lp1224
I50
aI27
asg5
(lp1225
I54
aI30
asg7
I1
sa(dp1226
g2
I24
sg3
(lp1227
I38
aI37
asg5
(lp1228
I50
aI27
asg7
I1
sa(dp1229
g2
I-22
sg3
(lp1230
I27
aI49
asg5
(lp1231
I38
aI37
asg7
I1
sa(dp1232
g2
I-18
sg3
(lp1233
I22
aI58
asg5
(lp1234
I27
aI49
asg7
I1
sa(dp1235
g2
I-10
sg3
(lp1236
I13
aI63
asg5
(lp1237
I22
aI58
asg7
I2
sa(dp1238
g2
I-26
sg3
(lp1239
I16
aI76
asg5
(lp1240
I13
aI63
asg7
I2
sa(dp1241
g2
I-4
sg3
(lp1242
I13
aI78
asg5
(lp1243
I16
aI76
asg7
I2
sa(dp1244
g2
I0
sg3
(lp1245
I22
aI78
asg5
(lp1246
I13
aI78
asg7
I2
sa(dp1247
g2
I14
sg3
(lp1248
I27
aI71
asg5
(lp1249
I22
aI78
asg7
I2
sa(dp1250
g2
I8
sg3
(lp1251
I21
aI67
asg5
(lp1252
I27
aI71
asg7
I2
sa(dp1253
g2
I30
sg3
(lp1254
I32
aI52
asg5
(lp1255
I21
aI67
asg7
I2
sa(dp1256
g2
I22
sg3
(lp1257
I38
aI41
asg5
(lp1258
I32
aI52
asg7
I2
sa(dp1259
g2
I-4
sg3
(lp1260
I43
aI30
asg5
(lp1261
I38
aI41
asg7
I2
sa(dp1262
g2
I-26
sg3
(lp1263
I56
aI17
asg5
(lp1264
I43
aI30
asg7
I2
sa(dp1265
g2
I4
sg3
(lp1266
I54
aI20
asg5
(lp1267
I56
aI17
asg7
I1
sa(dp1268
g2
I-2
sg3
(lp1269
I55
aI14
asg5
(lp1270
I54
aI20
asg7
I1
sa(dp1271
g2
I2
sg3
(lp1272
I54
aI25
asg5
(lp1273
I55
aI14
asg7
I1
sa(dp1274
g2
I4
sg3
(lp1275
I52
aI21
asg5
(lp1276
I54
aI25
asg7
I0
sa(dp1277
g2
I4
sg3
(lp1278
I50
aI16
asg5
(lp1279
I52
aI21
asg7
I1
sa(dp1280
g2
I6
sg3
(lp1281
I47
aI21
asg5
(lp1282
I50
aI16
asg7
I1
sa(dp1283
g2
I0
sg3
(lp1284
I47
aI21
asg5
(lp1285
I47
aI21
asg7
I1
sa(dp1286
g2
I20
sg3
(lp1287
I37
aI20
asg5
(lp1288
I47
aI21
asg7
I1
sa(dp1289
g2
I24
sg3
(lp1290
I25
aI24
asg5
(lp1291
I37
aI20
asg7
I1
sa(dp1292
g2
I-8
sg3
(lp1293
I28
aI29
asg5
(lp1294
I25
aI24
asg7
I1
sa(dp1295
g2
I-20
sg3
(lp1296
I20
aI39
asg5
(lp1297
I28
aI29
asg7
I1
sa(dp1298
g2
I-16
sg3
(lp1299
I13
aI47
asg5
(lp1300
I20
aI39
asg7
I2
sa(dp1301
g2
I-6
sg3
(lp1302
I14
aI50
asg5
(lp1303
I13
aI47
asg7
I2
sa(dp1304
g2
I-26
sg3
(lp1305
I19
aI63
asg5
(lp1306
I14
aI50
asg7
I2
sa(dp1307
g2
I0
sg3
(lp1308
I17
aI63
asg5
(lp1309
I19
aI63
asg7
I2
sa(dp1310
g2
I2
sg3
(lp1311
I18
aI62
asg5
(lp1312
I17
aI63
asg7
I2
sa(dp1313
g2
I16
sg3
(lp1314
I22
aI54
asg5
(lp1315
I18
aI62
asg7
I2
sa(dp1316
g2
I10
sg3
(lp1317
I20
aI49
asg5
(lp1318
I22
aI54
asg7
I2
sa(dp1319
g2
I8
sg3
(lp1320
I19
aI45
asg5
(lp1321
I20
aI49
asg7
I2
sa(dp1322
g2
I14
sg3
(lp1323
I22
aI38
asg5
(lp1324
I19
aI45
asg7
I2
sa(dp1325
g2
I10
sg3
(lp1326
I33
aI32
asg5
(lp1327
I22
aI38
asg7
I2
sa(dp1328
g2
I-22
sg3
(lp1329
I44
aI21
asg5
(lp1330
I33
aI32
asg7
I2
sa(dp1331
g2
I-6
sg3
(lp1332
I47
aI23
asg5
(lp1333
I44
aI21
asg7
I1
sa(dp1334
g2
I0
sg3
(lp1335
I47
aI18
asg5
(lp1336
I47
aI23
asg7
I1
sa(dp1337
g2
I-6
sg3
(lp1338
I50
aI22
asg5
(lp1339
I47
aI18
asg7
I1
sa(dp1340
g2
I-16
sg3
(lp1341
I58
aI14
asg5
(lp1342
I50
aI22
asg7
I1
sa(dp1343
g2
I24
sg3
(lp1344
I46
aI17
asg5
(lp1345
I58
aI14
asg7
I1
sa(dp1346
g2
I-4
sg3
(lp1347
I48
aI19
asg5
(lp1348
I46
aI17
asg7
I1
sa(dp1349
g2
I20
sg3
(lp1350
I38
aI18
asg5
(lp1351
I48
aI19
asg7
I1
sa(dp1352
g2
I20
sg3
(lp1353
I28
aI22
asg5
(lp1354
I38
aI18
asg7
I1
sa(dp1355
g2
I-6
sg3
(lp1356
I12
aI31
asg5
(lp1357
I28
aI22
asg7
I1
sa(dp1358
g2
I-22
sg3
(lp1359
I11
aI42
asg5
(lp1360
I12
aI31
asg7
I1
sa(dp1361
g2
I-8
sg3
(lp1362
I18
aI46
asg5
(lp1363
I11
aI42
asg7
I2
sa(dp1364
g2
I-24
sg3
(lp1365
I18
aI58
asg5
(lp1366
I18
aI46
asg7
I2
sa(dp1367
g2
I2
sg3
(lp1368
I20
aI57
asg5
(lp1369
I18
aI58
asg7
I2
sa(dp1370
g2
I10
sg3
(lp1371
I19
aI52
asg5
(lp1372
I20
aI57
asg7
I1
sa(dp1373
g2
I10
sg3
(lp1374
I23
aI47
asg5
(lp1375
I19
aI52
asg7
I2
sa(dp1376
g2
I12
sg3
(lp1377
I19
aI41
asg5
(lp1378
I23
aI47
asg7
I2
sa(dp1379
g2
I22
sg3
(lp1380
I14
aI30
asg5
(lp1381
I19
aI41
asg7
I1
sa(dp1382
g2
I-16
sg3
(lp1383
I16
aI38
asg5
(lp1384
I14
aI30
asg7
I2
sa(dp1385
g2
I0
sg3
(lp1386
I20
aI38
asg5
(lp1387
I16
aI38
asg7
I2
sa(dp1388
g2
I10
sg3
(lp1389
I24
aI33
asg5
(lp1390
I20
aI38
asg7
I2
sa(dp1391
g2
I8
sg3
(lp1392
I21
aI29
asg5
(lp1393
I24
aI33
asg7
I2
sa(dp1394
g2
I-2
sg3
(lp1395
I30
aI25
asg5
(lp1396
I21
aI29
asg7
I2
sa(dp1397
g2
I-16
sg3
(lp1398
I38
aI18
asg5
(lp1399
I30
aI25
asg7
I2
sa(dp1400
g2
I-14
sg3
(lp1401
I45
aI20
asg5
(lp1402
I38
aI18
asg7
I1
sa(dp1403
g2
I4
sg3
(lp1404
I43
aI22
asg5
(lp1405
I45
aI20
asg7
I1
sa(dp1406
g2
I10
sg3
(lp1407
I38
aI18
asg5
(lp1408
I43
aI22
asg7
I1
sa(dp1409
g2
I-32
sg3
(lp1410
I54
aI16
asg5
(lp1411
I38
aI18
asg7
I1
sa(dp1412
g2
I20
sg3
(lp1413
I44
aI27
asg5
(lp1414
I54
aI16
asg7
I1
sa(dp1415
g2
I18
sg3
(lp1416
I32
aI35
asg5
(lp1417
I44
aI27
asg7
I2
sa(dp1418
g2
I2
sg3
(lp1419
I34
aI29
asg5
(lp1420
I32
aI35
asg7
I2
sa(dp1421
g2
I6
sg3
(lp1422
I31
aI23
asg5
(lp1423
I34
aI29
asg7
I1
sa(dp1424
g2
I4
sg3
(lp1425
I27
aI29
asg5
(lp1426
I31
aI23
asg7
I1
sa(dp1427
g2
I-12
sg3
(lp1428
I26
aI35
asg5
(lp1429
I27
aI29
asg7
I1
sa(dp1430
g2
I4
sg3
(lp1431
I24
aI33
asg5
(lp1432
I26
aI35
asg7
I1
sa(dp1433
g2
I-22
sg3
(lp1434
I16
aI44
asg5
(lp1435
I24
aI33
asg7
I2
sa(dp1436
g2
I-16
sg3
(lp1437
I20
aI52
asg5
(lp1438
I16
aI44
asg7
I2
sa(dp1439
g2
I12
sg3
(lp1440
I29
aI46
asg5
(lp1441
I20
aI52
asg7
I2
sa(dp1442
g2
I20
sg3
(lp1443
I20
aI36
asg5
(lp1444
I29
aI46
asg7
I1
sa(dp1445
g2
I-2
sg3
(lp1446
I26
aI37
asg5
(lp1447
I20
aI36
asg7
I2
sa(dp1448
g2
I-2
sg3
(lp1449
I24
aI38
asg5
(lp1450
I26
aI37
asg7
I2
sa(dp1451
g2
I16
sg3
(lp1452
I22
aI30
asg5
(lp1453
I24
aI38
asg7
I2
sa(dp1454
g2
I-16
sg3
(lp1455
I38
aI18
asg5
(lp1456
I22
aI30
asg7
I2
sa(dp1457
g2
I-6
sg3
(lp1458
I41
aI17
asg5
(lp1459
I38
aI18
asg7
I1
sa(dp1460
g2
I20
sg3
(lp1461
I31
aI17
asg5
(lp1462
I41
aI17
asg7
I1
sa(dp1463
g2
I-6
sg3
(lp1464
I34
aI25
asg5
(lp1465
I31
aI17
asg7
I2
sa(dp1466
g2
I2
sg3
(lp1467
I33
aI16
asg5
(lp1468
I34
aI25
asg7
I1
sa(dp1469
g2
I4
sg3
(lp1470
I31
aI19
asg5
(lp1471
I33
aI16
asg7
I1
sa(dp1472
g2
I2
sg3
(lp1473
I30
aI25
asg5
(lp1474
I31
aI19
asg7
I1
sa(dp1475
g2
I-8
sg3
(lp1476
I34
aI32
asg5
(lp1477
I30
aI25
asg7
I1
sa(dp1478
g2
I6
sg3
(lp1479
I25
aI31
asg5
(lp1480
I34
aI32
asg7
I1
sa(dp1481
g2
I-10
sg3
(lp1482
I20
aI36
asg5
(lp1483
I25
aI31
asg7
I2
sa(dp1484
g2
I4
sg3
(lp1485
I23
aI34
asg5
(lp1486
I20
aI36
asg7
I2
sa(dp1487
g2
I0
sg3
(lp1488
I25
aI34
asg5
(lp1489
I23
aI34
asg7
I2
sa(dp1490
g2
I0
sg3
(lp1491
I25
aI34
asg5
(lp1492
I25
aI34
asg7
I2
sa(dp1493
g2
I0
sg3
(lp1494
I26
aI34
asg5
(lp1495
I25
aI34
asg7
I2
sa(dp1496
g2
I-8
sg3
(lp1497
I23
aI38
asg5
(lp1498
I26
aI34
asg7
I2
sa(dp1499
g2
I20
sg3
(lp1500
I27
aI28
asg5
(lp1501
I23
aI38
asg7
I2
sa(dp1502
g2
I-22
sg3
(lp1503
I39
aI26
asg5
(lp1504
I27
aI28
asg7
I2
sa(dp1505
g2
I-34
sg3
(lp1506
I56
aI10
asg5
(lp1507
I39
aI26
asg7
I2
sa(dp1508
g2
I-26
sg3
(lp1509
I69
aI12
asg5
(lp1510
I56
aI10
asg7
I1
sa(dp1511
g2
I-12
sg3
(lp1512
I75
aI16
asg5
(lp1513
I69
aI12
asg7
I1
sa(dp1514
g2
I-18
sg3
(lp1515
I84
aI20
asg5
(lp1516
I75
aI16
asg7
I1
sa(dp1517
g2
I24
sg3
(lp1518
I72
aI18
asg5
(lp1519
I84
aI20
asg7
I1
sa(dp1520
g2
I-18
sg3
(lp1521
I81
aI19
asg5
(lp1522
I72
aI18
asg7
I0
sa(dp1523
g2
I22
sg3
(lp1524
I70
aI22
asg5
(lp1525
I81
aI19
asg7
I1
sa(dp1526
g2
I18
sg3
(lp1527
I61
aI26
asg5
(lp1528
I70
aI22
asg7
I1
sa(dp1529
g2
I18
sg3
(lp1530
I52
aI18
asg5
(lp1531
I61
aI26
asg7
I1
sa(dp1532
g2
I20
sg3
(lp1533
I42
aI23
asg5
(lp1534
I52
aI18
asg7
I1
sa(dp1535
g2
I12
sg3
(lp1536
I36
aI22
asg5
(lp1537
I42
aI23
asg7
I1
sa(dp1538
g2
I18
sg3
(lp1539
I25
aI27
asg5
(lp1540
I36
aI22
asg7
I1
sa(dp1541
g2
I-2
sg3
(lp1542
I17
aI28
asg5
(lp1543
I25
aI27
asg7
I1
sa(dp1544
g2
I-28
sg3
(lp1545
I9
aI42
asg5
(lp1546
I17
aI28
asg7
I1
sa(dp1547
g2
I-24
sg3
(lp1548
I16
aI54
asg5
(lp1549
I9
aI42
asg7
I2
sa(dp1550
g2
I-2
sg3
(lp1551
I14
aI55
asg5
(lp1552
I16
aI54
asg7
I2
sa(dp1553
g2
I-28
sg3
(lp1554
I20
aI69
asg5
(lp1555
I14
aI55
asg7
I2
sa(dp1556
g2
I-6
sg3
(lp1557
I16
aI72
asg5
(lp1558
I20
aI69
asg7
I0
sa(dp1559
g2
I-14
sg3
(lp1560
I17
aI79
asg5
(lp1561
I16
aI72
asg7
I2
sa(dp1562
g2
I0
sg3
(lp1563
I15
aI79
asg5
(lp1564
I17
aI79
asg7
I2
sa(dp1565
g2
I-6
sg3
(lp1566
I19
aI82
asg5
(lp1567
I15
aI79
asg7
I1
sa(dp1568
g2
I8
sg3
(lp1569
I18
aI78
asg5
(lp1570
I19
aI82
asg7
I2
sa(dp1571
g2
I18
sg3
(lp1572
I25
aI69
asg5
(lp1573
I18
aI78
asg7
I2
sa(dp1574
g2
I8
sg3
(lp1575
I25
aI65
asg5
(lp1576
I25
aI69
asg7
I2
sa(dp1577
g2
I32
sg3
(lp1578
I26
aI49
asg5
(lp1579
I25
aI65
asg7
I2
sa(dp1580
g2
I2
sg3
(lp1581
I28
aI48
asg5
(lp1582
I26
aI49
asg7
I2
sa(dp1583
g2
I20
sg3
(lp1584
I38
aI35
asg5
(lp1585
I28
aI48
asg7
I2
sa(dp1586
g2
I-12
sg3
(lp1587
I44
aI39
asg5
(lp1588
I38
aI35
asg7
I1
sa(dp1589
g2
I-8
sg3
(lp1590
I48
aI33
asg5
(lp1591
I44
aI39
asg7
I2
sa(dp1592
g2
I0
sg3
(lp1593
I48
aI29
asg5
(lp1594
I48
aI33
asg7
I1
sa(dp1595
g2
I-2
sg3
(lp1596
I49
aI24
asg5
(lp1597
I48
aI29
asg7
I1
sa(dp1598
g2
I-2
sg3
(lp1599
I50
aI19
asg5
(lp1600
I49
aI24
asg7
I1
sa(dp1601
g2
I12
sg3
(lp1602
I44
aI21
asg5
(lp1603
I50
aI19
asg7
I1
sa(dp1604
g2
I-14
sg3
(lp1605
I51
aI20
asg5
(lp1606
I44
aI21
asg7
I1
sa(dp1607
g2
I22
sg3
(lp1608
I40
aI29
asg5
(lp1609
I51
aI20
asg7
I1
sa(dp1610
g2
I6
sg3
(lp1611
I31
aI37
asg5
(lp1612
I40
aI29
asg7
I1
sa(dp1613
g2
I-6
sg3
(lp1614
I22
aI40
asg5
(lp1615
I31
aI37
asg7
I2
sa(dp1616
g2
I-8
sg3
(lp1617
I23
aI44
asg5
(lp1618
I22
aI40
asg7
I2
sa(dp1619
g2
I-12
sg3
(lp1620
I19
aI50
asg5
(lp1621
I23
aI44
asg7
I2
sa(dp1622
g2
I22
sg3
(lp1623
I29
aI39
asg5
(lp1624
I19
aI50
asg7
I2
sa(dp1625
g2
I2
sg3
(lp1626
I33
aI38
asg5
(lp1627
I29
aI39
asg7
I1
sa(dp1628
g2
I4
sg3
(lp1629
I32
aI36
asg5
(lp1630
I33
aI38
asg7
I2
sa(dp1631
g2
I16
sg3
(lp1632
I28
aI27
asg5
(lp1633
I32
aI36
asg7
I1
sa(dp1634
g2
I-4
sg3
(lp1635
I30
aI26
asg5
(lp1636
I28
aI27
asg7
I2
sa(dp1637
g2
I8
sg3
(lp1638
I26
aI23
asg5
(lp1639
I30
aI26
asg7
I2
sa(dp1640
g2
I-12
sg3
(lp1641
I32
aI20
asg5
(lp1642
I26
aI23
asg7
I2
sa(dp1643
g2
I-6
sg3
(lp1644
I35
aI18
asg5
(lp1645
I32
aI20
asg7
I2
sa(dp1646
g2
I-32
sg3
(lp1647
I51
aI15
asg5
(lp1648
I35
aI18
asg7
I2
sa(dp1649
g2
I-32
sg3
(lp1650
I67
aI12
asg5
(lp1651
I51
aI15
asg7
I2
sa(dp1652
g2
I-36
sg3
(lp1653
I85
aI12
asg5
(lp1654
I67
aI12
asg7
I1
sa(dp1655
g2
I-12
sg3
(lp1656
I91
aI9
asg5
(lp1657
I85
aI12
asg7
I1
sa(dp1658
g2
I-10
sg3
(lp1659
I96
aI20
asg5
(lp1660
I91
aI9
asg7
I0
sa(dp1661
g2
I-6
sg3
(lp1662
I99
aI15
asg5
(lp1663
I96
aI20
asg7
I1
sa(dp1664
g2
I-2
sg3
(lp1665
I100
aI17
asg5
(lp1666
I99
aI15
asg7
I1
sa(dp1667
g2
I-2
sg3
(lp1668
I101
aI15
asg5
(lp1669
I100
aI17
asg7
I1
sa(dp1670
g2
I28
sg3
(lp1671
I87
aI26
asg5
(lp1672
I101
aI15
asg7
I1
sa(dp1673
g2
I30
sg3
(lp1674
I72
aI23
asg5
(lp1675
I87
aI26
asg7
I0
sa(dp1676
g2
I4
sg3
(lp1677
I70
aI22
asg5
(lp1678
I72
aI23
asg7
I1
sa(dp1679
g2
I24
sg3
(lp1680
I58
aI25
asg5
(lp1681
I70
aI22
asg7
I1
sa(dp1682
g2
I2
sg3
(lp1683
I57
aI25
asg5
(lp1684
I58
aI25
asg7
I1
sa(dp1685
g2
I30
sg3
(lp1686
I42
aI32
asg5
(lp1687
I57
aI25
asg7
I1
sa(dp1688
g2
I6
sg3
(lp1689
I29
aI39
asg5
(lp1690
I42
aI32
asg7
I2
sa(dp1691
g2
I-16
sg3
(lp1692
I23
aI47
asg5
(lp1693
I29
aI39
asg7
I2
sa(dp1694
g2
I2
sg3
(lp1695
I28
aI46
asg5
(lp1696
I23
aI47
asg7
I2
sa(dp1697
g2
I8
sg3
(lp1698
I19
aI42
asg5
(lp1699
I28
aI46
asg7
I2
sa(dp1700
g2
I-10
sg3
(lp1701
I16
aI47
asg5
(lp1702
I19
aI42
asg7
I2
sa(dp1703
g2
I22
sg3
(lp1704
I23
aI36
asg5
(lp1705
I16
aI47
asg7
I2
sa(dp1706
g2
I10
sg3
(lp1707
I27
aI31
asg5
(lp1708
I23
aI36
asg7
I2
sa(dp1709
g2
I-18
sg3
(lp1710
I40
aI19
asg5
(lp1711
I27
aI31
asg7
I2
sa(dp1712
g2
I0
sg3
(lp1713
I40
aI17
asg5
(lp1714
I40
aI19
asg7
I1
sa(dp1715
g2
I14
sg3
(lp1716
I33
aI23
asg5
(lp1717
I40
aI17
asg7
I1
sa(dp1718
g2
I20
sg3
(lp1719
I23
aI23
asg5
(lp1720
I33
aI23
asg7
I1
sa(dp1721
g2
I16
sg3
(lp1722
I13
aI15
asg5
(lp1723
I23
aI23
asg7
I1
sa(dp1724
g2
I-24
sg3
(lp1725
I27
aI18
asg5
(lp1726
I13
aI15
asg7
I1
sa(dp1727
g2
I8
sg3
(lp1728
I23
aI21
asg5
(lp1729
I27
aI18
asg7
I1
sa(dp1730
g2
I12
sg3
(lp1731
I17
aI17
asg5
(lp1732
I23
aI21
asg7
I1
sa(dp1733
g2
I-30
sg3
(lp1734
I19
aI32
asg5
(lp1735
I17
aI17
asg7
I1
sa(dp1736
g2
I-16
sg3
(lp1737
I15
aI40
asg5
(lp1738
I19
aI32
asg7
I1
sa.